; Function Attrs: nounwind uwtable
define ptr @l_Lean_Server_RequestM_parseRequestParams___at_Lean_Server_FileWorker_initFn____x40_Lean_Server_FileWorker_SemanticHighlighting___hyg_2982____spec__3___boxed(ptr noundef %0, ptr noundef %1, ptr noundef %2) local_unnamed_addr #0 {
  %4 = tail call ptr @l_Lean_Server_parseRequestParams___at_Lean_Server_FileWorker_initFn____x40_Lean_Server_FileWorker_SemanticHighlighting___hyg_2982____spec__2(ptr noundef %0)
  %5 = tail call ptr @l_EIO_ofExcept___rarg(ptr noundef %4, ptr noundef %2) #7
  %6 = ptrtoint ptr %4 to i64
  %7 = and i64 %6, 1
  %.not.i5 = icmp eq i64 %7, 0
  br i1 %.not.i5, label %8, label %l_Lean_Server_RequestM_parseRequestParams___at_Lean_Server_FileWorker_initFn____x40_Lean_Server_FileWorker_SemanticHighlighting___hyg_2982____spec__3.exit

8:                                                ; preds = %3
  %9 = load i32, ptr %4, align 4, !tbaa !8
  %10 = icmp sgt i32 %9, 1
  br i1 %10, label %11, label %13, !prof !14

11:                                               ; preds = %8
  %12 = add nsw i32 %9, -1
  store i32 %12, ptr %4, align 4, !tbaa !8
  br label %l_Lean_Server_RequestM_parseRequestParams___at_Lean_Server_FileWorker_initFn____x40_Lean_Server_FileWorker_SemanticHighlighting___hyg_2982____spec__3.exit

13:                                               ; preds = %8
  %.not.i.i = icmp eq i32 %9, 0
  br i1 %.not.i.i, label %l_Lean_Server_RequestM_parseRequestParams___at_Lean_Server_FileWorker_initFn____x40_Lean_Server_FileWorker_SemanticHighlighting___hyg_2982____spec__3.exit, label %14

14:                                               ; preds = %13
  tail call void @lean_dec_ref_cold(ptr noundef nonnull %4) #7
  br label %l_Lean_Server_RequestM_parseRequestParams___at_Lean_Server_FileWorker_initFn____x40_Lean_Server_FileWorker_SemanticHighlighting___hyg_2982____spec__3.exit

l_Lean_Server_RequestM_parseRequestParams___at_Lean_Server_FileWorker_initFn____x40_Lean_Server_FileWorker_SemanticHighlighting___hyg_2982____spec__3.exit: ; preds = %3, %11, %13, %14
  %15 = ptrtoint ptr %1 to i64
  %16 = and i64 %15, 1
  %.not = icmp eq i64 %16, 0
  br i1 %.not, label %17, label %lean_dec.exit

17:                                               ; preds = %l_Lean_Server_RequestM_parseRequestParams___at_Lean_Server_FileWorker_initFn____x40_Lean_Server_FileWorker_SemanticHighlighting___hyg_2982____spec__3.exit
  %18 = load i32, ptr %1, align 4, !tbaa !8
  %19 = icmp sgt i32 %18, 1
  br i1 %19, label %20, label %22, !prof !14

20:                                               ; preds = %17
  %21 = add nsw i32 %18, -1
  store i32 %21, ptr %1, align 4, !tbaa !8
  br label %lean_dec.exit

22:                                               ; preds = %17
  %.not.i = icmp eq i32 %18, 0
  br i1 %.not.i, label %lean_dec.exit, label %23

23:                                               ; preds = %22
  tail call void @lean_dec_ref_cold(ptr noundef nonnull %1) #7
  br label %lean_dec.exit

lean_dec.exit:                                    ; preds = %23, %22, %20, %l_Lean_Server_RequestM_parseRequestParams___at_Lean_Server_FileWorker_initFn____x40_Lean_Server_FileWorker_SemanticHighlighting___hyg_2982____spec__3.exit
  ret ptr %5
}